; Function Attrs: mustprogress nofree norecurse nosync nounwind willreturn memory(read, inaccessiblemem: none) uwtable
define zeroext i8 @ubidi_getParaLevel_77(ptr noundef readonly %0) local_unnamed_addr #8 {
  %.not = icmp eq ptr %0, null
  br i1 %.not, label %12, label %2

2:                                                ; preds = %1
  %3 = load ptr, ptr %0, align 8, !tbaa !27
  %4 = icmp eq ptr %3, %0
  br i1 %4, label %9, label %5

5:                                                ; preds = %2
  %.not9 = icmp eq ptr %3, null
  br i1 %.not9, label %12, label %6

6:                                                ; preds = %5
  %7 = load ptr, ptr %3, align 8, !tbaa !27
  %8 = icmp eq ptr %7, %3
  br i1 %8, label %9, label %12

9:                                                ; preds = %6, %2
  %10 = getelementptr inbounds nuw i8, ptr %0, i64 141
  %11 = load i8, ptr %10, align 1, !tbaa !66
  br label %12

12:                                               ; preds = %1, %5, %6, %9
  %.0 = phi i8 [ %11, %9 ], [ 0, %6 ], [ 0, %5 ], [ 0, %1 ]
  ret i8 %.0
}